target datalayout = "e-m:e-p270:32:32-p271:32:32-p272:64:64-i64:64-i128:128-f80:128-n8:16:32:64-S128"
target triple = "x86_64-pc-linux-gnu"

%struct._value_string = type { i32, ptr }
%struct._asn1_ctx_t = type { i32, i32, i8, ptr, ptr, ptr, ptr, ptr, %struct.anon, %struct.anon.2, %struct.anon.3, ptr }
%struct.anon = type { i32, i8, i8, i8, ptr, ptr, i32, i32, ptr, ptr, ptr, %union.anon }
%union.anon = type { %struct.anon.0 }
%struct.anon.0 = type { ptr }
%struct.anon.2 = type { ptr, ptr, ptr }
%struct.anon.3 = type { i32, i8, ptr, i32, i32, ptr, ptr, ptr, %union.anon.4 }
%union.anon.4 = type { %struct.anon.5 }
%struct.anon.5 = type { ptr }
%struct._packet_info = type { ptr, ptr, i32, i32, %struct.nstime_t, %struct.nstime_t, %struct.nstime_t, i8, ptr, ptr, ptr, ptr, %struct._address, %struct._address, %struct._address, %struct._address, %struct._address, %struct._address, i32, ptr, i8, [3 x i8], %struct.anon.7, i32, i32, i32, i32, ptr, i8, ptr, ptr, i16, i16, i32, i32, i16, i32, i32, ptr, ptr, ptr, i8, i8, i16, i16, i16, i32, i16, i16, ptr, ptr, ptr, ptr, ptr, i32, i32 }
%struct.nstime_t = type { i64, i32 }
%struct._address = type { i32, i32, ptr, ptr }
%struct.anon.7 = type { i8, [3 x i8] }

@.str.3 = private unnamed_addr constant [4 x i8] c" %s\00", align 1
@ett_p1_ReportType = internal global i32 0, align 4
@p1_ReportType_vals = internal constant [3 x { i32, [4 x i8], ptr }] [{ i32, [4 x i8], ptr } { i32 0, [4 x i8] zeroinitializer, ptr @.str.837 }, { i32, [4 x i8], ptr } { i32 1, [4 x i8] zeroinitializer, ptr @.str.840 }, { i32, [4 x i8], ptr } zeroinitializer], align 16

; Function Attrs: null_pointer_is_valid sspstrong uwtable
define internal i32 @dissect_p1_ReportType(i1 noundef zeroext %0, ptr noundef %1, i32 noundef %2, ptr noundef %3, ptr noundef %4, i32 noundef %5) #0 {
  %7 = alloca i8, align 1
  %8 = alloca ptr, align 8
  %9 = alloca i32, align 4
  %10 = alloca ptr, align 8
  %11 = alloca ptr, align 8
  %12 = alloca i32, align 4
  %13 = alloca i32, align 4
  %14 = zext i1 %0 to i8
  store i8 %14, ptr %7, align 1
  store ptr %1, ptr %8, align 8
  store i32 %2, ptr %9, align 4
  store ptr %3, ptr %10, align 8
  store ptr %4, ptr %11, align 8
  store i32 %5, ptr %12, align 4
  call void @llvm.lifetime.start.p0(i64 4, ptr %13) #5
  store i32 -1, ptr %13, align 4
  %15 = load ptr, ptr %10, align 8
  %16 = load ptr, ptr %11, align 8
  %17 = load ptr, ptr %8, align 8
  %18 = load i32, ptr %9, align 4
  %19 = load i32, ptr %12, align 4
  %20 = load i32, ptr @ett_p1_ReportType, align 4
  %21 = call i32 @dissect_ber_choice(ptr noundef %15, ptr noundef %16, ptr noundef %17, i32 noundef %18, ptr noundef @ReportType_choice, i32 noundef %19, i32 noundef %20, ptr noundef %13)
  store i32 %21, ptr %9, align 4
  %22 = load i32, ptr %13, align 4
  %23 = icmp ne i32 %22, -1
  br i1 %23, label %24, label %42

24:                                               ; preds = %6
  %25 = load i32, ptr %13, align 4
  %26 = sext i32 %25 to i64
  %27 = getelementptr [3 x %struct._value_string], ptr @p1_ReportType_vals, i64 0, i64 %26
  %28 = getelementptr inbounds nuw %struct._value_string, ptr %27, i32 0, i32 1
  %29 = load ptr, ptr %28, align 8
  %30 = icmp ne ptr %29, null
  br i1 %30, label %31, label %42

31:                                               ; preds = %24
  %32 = load ptr, ptr %10, align 8
  %33 = getelementptr inbounds nuw %struct._asn1_ctx_t, ptr %32, i32 0, i32 3
  %34 = load ptr, ptr %33, align 8
  %35 = getelementptr inbounds nuw %struct._packet_info, ptr %34, i32 0, i32 1
  %36 = load ptr, ptr %35, align 8
  %37 = load i32, ptr %13, align 4
  %38 = sext i32 %37 to i64
  %39 = getelementptr [3 x %struct._value_string], ptr @p1_ReportType_vals, i64 0, i64 %38
  %40 = getelementptr inbounds nuw %struct._value_string, ptr %39, i32 0, i32 1
  %41 = load ptr, ptr %40, align 8
  call void (ptr, i32, ptr, ...) @col_append_fstr(ptr noundef %36, i32 noundef 25, ptr noundef @.str.3, ptr noundef %41)
  br label %42

42:                                               ; preds = %31, %24, %6
  %43 = load i32, ptr %9, align 4
  call void @llvm.lifetime.end.p0(i64 4, ptr %13) #5
  ret i32 %43
}