; Function Attrs: null_pointer_is_valid sspstrong uwtable
define internal i32 @dissect_p1_ReportType(i1 zeroext %0, ptr noundef %1, i32 noundef %2, ptr noundef %3, ptr noundef %4, i32 noundef %5) #0 {
  %7 = alloca i32, align 4
  call void @llvm.lifetime.start.p0(i64 4, ptr nonnull %7) #5
  store i32 -1, ptr %7, align 4
  %8 = load i32, ptr @ett_p1_ReportType, align 4
  %9 = call i32 @dissect_ber_choice(ptr noundef %3, ptr noundef %4, ptr noundef %1, i32 noundef %2, ptr noundef nonnull @ReportType_choice, i32 noundef %5, i32 noundef %8, ptr noundef nonnull %7)
  %10 = load i32, ptr %7, align 4
  %.not = icmp eq i32 %10, -1
  br i1 %.not, label %20, label %11

11:                                               ; preds = %6
  %12 = sext i32 %10 to i64
  %13 = getelementptr [3 x %struct._value_string], ptr @p1_ReportType_vals, i64 0, i64 %12, i32 1
  %14 = load ptr, ptr %13, align 8
  %.not7 = icmp eq ptr %14, null
  br i1 %.not7, label %20, label %15

15:                                               ; preds = %11
  %16 = getelementptr inbounds nuw i8, ptr %3, i64 16
  %17 = load ptr, ptr %16, align 8
  %18 = getelementptr inbounds nuw i8, ptr %17, i64 8
  %19 = load ptr, ptr %18, align 8
  call void (ptr, i32, ptr, ...) @col_append_fstr(ptr noundef %19, i32 noundef 25, ptr noundef nonnull @.str.3, ptr noundef nonnull %14)
  br label %20

20:                                               ; preds = %15, %11, %6
  call void @llvm.lifetime.end.p0(i64 4, ptr nonnull %7) #5
  ret i32 %9
}